; ModuleID = '56/1140.c'
source_filename = "56/1140.c"
target datalayout = "e-m:e-p270:32:32-p271:32:32-p272:64:64-i64:64-f80:128-n8:16:32:64-S128"
target triple = "x86_64-pc-linux-gnu"

@.str = private unnamed_addr constant [3 x i8] c"%d\00", align 1

; Function Attrs: noinline nounwind uwtable
define dso_local i32 @main(i32 %0, i8** %1) #0 {
  %3 = alloca i32, align 4
  %4 = alloca i32, align 4
  %5 = alloca i8**, align 8
  %6 = alloca i32, align 4
  %7 = alloca [5 x i32], align 16
  %8 = alloca i32, align 4
  store i32 0, i32* %3, align 4
  store i32 %0, i32* %4, align 4
  store i8** %1, i8*** %5, align 8
  %9 = call i32 (i8*, ...) @__isoc99_scanf(i8* getelementptr inbounds ([3 x i8], [3 x i8]* @.str, i64 0, i64 0), i32* %6)
  %10 = load i32, i32* %6, align 4
  %11 = sdiv i32 %10, 10000
  %12 = getelementptr inbounds [5 x i32], [5 x i32]* %7, i64 0, i64 0
  store i32 %11, i32* %12, align 16
  %13 = load i32, i32* %6, align 4
  %14 = srem i32 %13, 10000
  %15 = sdiv i32 %14, 1000
  %16 = getelementptr inbounds [5 x i32], [5 x i32]* %7, i64 0, i64 1
  store i32 %15, i32* %16, align 4
  %17 = load i32, i32* %6, align 4
  %18 = srem i32 %17, 1000
  %19 = sdiv i32 %18, 100
  %20 = getelementptr inbounds [5 x i32], [5 x i32]* %7, i64 0, i64 2
  store i32 %19, i32* %20, align 8
  %21 = load i32, i32* %6, align 4
  %22 = srem i32 %21, 100
  %23 = sdiv i32 %22, 10
  %24 = getelementptr inbounds [5 x i32], [5 x i32]* %7, i64 0, i64 3
  store i32 %23, i32* %24, align 4
  %25 = load i32, i32* %6, align 4
  %26 = srem i32 %25, 10
  %27 = getelementptr inbounds [5 x i32], [5 x i32]* %7, i64 0, i64 4
  store i32 %26, i32* %27, align 16
  store i32 4, i32* %8, align 4
  br label %28

28:                                               ; preds = %44, %2
  %29 = load i32, i32* %8, align 4
  %30 = icmp sge i32 %29, 0
  br i1 %30, label %31, label %47

31:                                               ; preds = %28
  %32 = load i32, i32* %8, align 4
  %33 = sext i32 %32 to i64
  %34 = getelementptr inbounds [5 x i32], [5 x i32]* %7, i64 0, i64 %33
  %35 = load i32, i32* %34, align 4
  %36 = icmp eq i32 %35, 0
  br i1 %36, label %37, label %38

37:                                               ; preds = %31
  br label %44

38:                                               ; preds = %31
  %39 = load i32, i32* %8, align 4
  %40 = sext i32 %39 to i64
  %41 = getelementptr inbounds [5 x i32], [5 x i32]* %7, i64 0, i64 %40
  %42 = load i32, i32* %41, align 4
  %43 = call i32 (i8*, ...) @printf(i8* getelementptr inbounds ([3 x i8], [3 x i8]* @.str, i64 0, i64 0), i32 %42)
  br label %44

44:                                               ; preds = %38, %37
  %45 = load i32, i32* %8, align 4
  %46 = add nsw i32 %45, -1
  store i32 %46, i32* %8, align 4
  br label %28

47:                                               ; preds = %28
  ret i32 0
}

declare dso_local i32 @__isoc99_scanf(i8*, ...) #1

declare dso_local i32 @printf(i8*, ...) #1


!llvm.module.flags = !{!0}
!llvm.ident = !{!1}

!0 = !{i32 1, !"wchar_size", i32 4}
!1 = !{!"clang version 10.0.0-4ubuntu1 "}
